; Function Attrs: mustprogress uwtable
define noalias noundef nonnull ptr @rocksdb_slicetransform_create_noop() local_unnamed_addr #0 {
  %1 = tail call noalias noundef nonnull dereferenceable(88) ptr @_Znwm(i64 noundef 88) #46
  %2 = getelementptr inbounds nuw i8, ptr %1, i64 8
  tail call void @llvm.memset.p0.i64(ptr noundef nonnull align 8 dereferenceable(24) %2, i8 0, i64 24, i1 false)
  store ptr getelementptr inbounds nuw inrange(-16, 192) (i8, ptr @_ZTV21SliceTransformWrapper, i64 16), ptr %1, align 8, !tbaa !23
  %3 = tail call noundef ptr @_ZN7rocksdb16NewNoopTransformEv()
  %4 = getelementptr inbounds nuw i8, ptr %1, i64 80
  store ptr %3, ptr %4, align 8, !tbaa !1089
  %5 = getelementptr inbounds nuw i8, ptr %1, i64 32
  store ptr null, ptr %5, align 8, !tbaa !1081
  %6 = getelementptr inbounds nuw i8, ptr %1, i64 40
  store ptr @_ZN21SliceTransformWrapper9DoNothingEPv, ptr %6, align 8, !tbaa !1084
  ret ptr %1
}